; Function Attrs: mustprogress nofree nounwind willreturn memory(read) uwtable
define dso_local noundef zeroext i1 @_ZN7testing8internal6String17WideCStringEqualsEPKwS3_(ptr noundef readonly %0, ptr noundef readonly %1) local_unnamed_addr #21 align 2 {
  %3 = icmp eq ptr %0, null
  %4 = icmp eq ptr %1, null
  %brmerge = or i1 %3, %4
  %.mux = and i1 %3, %4
  br i1 %brmerge, label %8, label %5

5:                                                ; preds = %2
  %6 = tail call i32 @wcscmp(ptr noundef nonnull %0, ptr noundef nonnull %1) #64
  %7 = icmp eq i32 %6, 0
  br label %8

8:                                                ; preds = %2, %5
  %.0 = phi i1 [ %7, %5 ], [ %.mux, %2 ]
  ret i1 %.0
}